target datalayout = "e-m:e-p270:32:32-p271:32:32-p272:64:64-i64:64-i128:128-f80:128-n8:16:32:64-S128"
target triple = "x86_64-pc-linux-gnu"

; Function Attrs: nounwind uwtable
define ptr @l_Lake_inputFile(ptr noundef %0, i8 noundef zeroext %1, ptr noundef %2, ptr noundef %3, ptr noundef %4, ptr noundef %5, ptr noundef %6, ptr noundef %7) #2 {
  %9 = alloca ptr, align 8
  %10 = alloca ptr, align 8
  %11 = alloca i8, align 1
  %12 = alloca ptr, align 8
  %13 = alloca ptr, align 8
  %14 = alloca ptr, align 8
  %15 = alloca ptr, align 8
  %16 = alloca ptr, align 8
  %17 = alloca ptr, align 8
  %18 = alloca ptr, align 8
  %19 = alloca ptr, align 8
  store ptr %0, ptr %10, align 8, !tbaa !10
  store i8 %1, ptr %11, align 1, !tbaa !12
  store ptr %2, ptr %12, align 8, !tbaa !10
  store ptr %3, ptr %13, align 8, !tbaa !10
  store ptr %4, ptr %14, align 8, !tbaa !10
  store ptr %5, ptr %15, align 8, !tbaa !10
  store ptr %6, ptr %16, align 8, !tbaa !10
  store ptr %7, ptr %17, align 8, !tbaa !10
  br label %20

20:                                               ; preds = %8
  %21 = load i8, ptr %11, align 1, !tbaa !12
  %22 = zext i8 %21 to i32
  %23 = icmp eq i32 %22, 0
  br i1 %23, label %24, label %34

24:                                               ; preds = %20
  call void @llvm.lifetime.start.p0(i64 8, ptr %18) #7
  %25 = load ptr, ptr %10, align 8, !tbaa !10
  %26 = load ptr, ptr %12, align 8, !tbaa !10
  %27 = load ptr, ptr %13, align 8, !tbaa !10
  %28 = load ptr, ptr %14, align 8, !tbaa !10
  %29 = load ptr, ptr %15, align 8, !tbaa !10
  %30 = load ptr, ptr %16, align 8, !tbaa !10
  %31 = load ptr, ptr %17, align 8, !tbaa !10
  %32 = call ptr @l_Lake_inputBinFile(ptr noundef %25, ptr noundef %26, ptr noundef %27, ptr noundef %28, ptr noundef %29, ptr noundef %30, ptr noundef %31)
  store ptr %32, ptr %18, align 8, !tbaa !10
  %33 = load ptr, ptr %18, align 8, !tbaa !10
  store ptr %33, ptr %9, align 8
  call void @llvm.lifetime.end.p0(i64 8, ptr %18) #7
  br label %44

34:                                               ; preds = %20
  call void @llvm.lifetime.start.p0(i64 8, ptr %19) #7
  %35 = load ptr, ptr %10, align 8, !tbaa !10
  %36 = load ptr, ptr %12, align 8, !tbaa !10
  %37 = load ptr, ptr %13, align 8, !tbaa !10
  %38 = load ptr, ptr %14, align 8, !tbaa !10
  %39 = load ptr, ptr %15, align 8, !tbaa !10
  %40 = load ptr, ptr %16, align 8, !tbaa !10
  %41 = load ptr, ptr %17, align 8, !tbaa !10
  %42 = call ptr @l_Lake_inputTextFile(ptr noundef %35, ptr noundef %36, ptr noundef %37, ptr noundef %38, ptr noundef %39, ptr noundef %40, ptr noundef %41)
  store ptr %42, ptr %19, align 8, !tbaa !10
  %43 = load ptr, ptr %19, align 8, !tbaa !10
  store ptr %43, ptr %9, align 8
  call void @llvm.lifetime.end.p0(i64 8, ptr %19) #7
  br label %44

44:                                               ; preds = %34, %24
  %45 = load ptr, ptr %9, align 8
  ret ptr %45
}