; Function Attrs: nounwind uwtable
define ptr @l_Lake_inputFile(ptr noundef %0, i8 noundef zeroext %1, ptr noundef %2, ptr noundef %3, ptr noundef %4, ptr noundef %5, ptr noundef readnone captures(none) %6, ptr noundef %7) local_unnamed_addr #0 {
  %9 = icmp eq i8 %1, 0
  br i1 %9, label %10, label %12

10:                                               ; preds = %8
  %11 = tail call ptr @l_Lake_inputBinFile(ptr noundef %0, ptr noundef %2, ptr noundef %3, ptr noundef %4, ptr noundef %5, ptr poison, ptr noundef %7)
  br label %14

12:                                               ; preds = %8
  %13 = tail call ptr @l_Lake_inputTextFile(ptr noundef %0, ptr noundef %2, ptr noundef %3, ptr noundef %4, ptr noundef %5, ptr poison, ptr noundef %7)
  br label %14

14:                                               ; preds = %12, %10
  %.0 = phi ptr [ %11, %10 ], [ %13, %12 ]
  ret ptr %.0
}